; Function Attrs: mustprogress nofree norecurse nosync nounwind willreturn memory(read, inaccessiblemem: none) uwtable
define hidden noundef zeroext i1 @_ZNK11ast_manager10is_patternEPK4expr(ptr noundef nonnull readnone align 8 captures(none) dereferenceable(976) %0, ptr noundef readonly captures(none) %1) local_unnamed_addr #10 align 2 {
  %3 = getelementptr inbounds nuw i8, ptr %1, i64 4
  %4 = load i32, ptr %3, align 4
  %5 = and i32 %4, 65535
  %6 = icmp eq i32 %5, 0
  br i1 %6, label %7, label %_Z9is_app_ofPK4exprii.exit.thread

7:                                                ; preds = %2
  %8 = getelementptr inbounds nuw i8, ptr %1, i64 16
  %9 = load ptr, ptr %8, align 8, !tbaa !118
  %10 = getelementptr inbounds nuw i8, ptr %9, i64 24
  %11 = load ptr, ptr %10, align 8, !tbaa !111
  %.not.i.i.i = icmp eq ptr %11, null
  br i1 %.not.i.i.i, label %_Z9is_app_ofPK4exprii.exit.thread, label %_Z9is_app_ofPK4exprii.exit

_Z9is_app_ofPK4exprii.exit:                       ; preds = %7
  %12 = load i32, ptr %11, align 8, !tbaa !96
  %13 = icmp eq i32 %12, 2
  %14 = getelementptr inbounds nuw i8, ptr %11, i64 4
  %15 = load i32, ptr %14, align 4
  %16 = icmp eq i32 %15, 0
  %17 = select i1 %13, i1 %16, i1 false
  br i1 %17, label %.preheader, label %_Z9is_app_ofPK4exprii.exit.thread

.preheader:                                       ; preds = %_Z9is_app_ofPK4exprii.exit
  %18 = getelementptr inbounds nuw i8, ptr %1, i64 32
  %19 = getelementptr inbounds nuw i8, ptr %1, i64 24
  %20 = load i32, ptr %19, align 8, !tbaa !123
  %21 = icmp eq i32 %20, 0
  br i1 %21, label %_Z9is_app_ofPK4exprii.exit.thread, label %.lr.ph.preheader

.lr.ph.preheader:                                 ; preds = %.preheader
  %wide.trip.count = zext i32 %20 to i64
  br label %.lr.ph

.lr.ph:                                           ; preds = %.lr.ph, %.lr.ph.preheader
  %indvars.iv = phi i64 [ 0, %.lr.ph.preheader ], [ %indvars.iv.next, %.lr.ph ]
  %22 = getelementptr inbounds nuw [0 x ptr], ptr %18, i64 0, i64 %indvars.iv
  %23 = load ptr, ptr %22, align 8, !tbaa !124
  %24 = getelementptr inbounds nuw i8, ptr %23, i64 4
  %25 = load i32, ptr %24, align 4
  %26 = and i32 %25, 65535
  %27 = icmp eq i32 %26, 0
  %indvars.iv.next = add nuw nsw i64 %indvars.iv, 1
  %exitcond.not = icmp ne i64 %indvars.iv.next, %wide.trip.count
  %or.cond.not = select i1 %27, i1 %exitcond.not, i1 false
  br i1 %or.cond.not, label %.lr.ph, label %_Z9is_app_ofPK4exprii.exit.thread, !llvm.loop !491

_Z9is_app_ofPK4exprii.exit.thread:                ; preds = %.lr.ph, %.preheader, %7, %2, %_Z9is_app_ofPK4exprii.exit
  %.08 = phi i1 [ false, %_Z9is_app_ofPK4exprii.exit ], [ false, %2 ], [ false, %7 ], [ true, %.preheader ], [ %27, %.lr.ph ]
  ret i1 %.08
}